; ModuleID = '51/332.c'
source_filename = "51/332.c"
target datalayout = "e-m:e-p270:32:32-p271:32:32-p272:64:64-i64:64-f80:128-n8:16:32:64-S128"
target triple = "x86_64-pc-linux-gnu"

@.str = private unnamed_addr constant [4 x i8] c"%d\0A\00", align 1
@.str.1 = private unnamed_addr constant [3 x i8] c"NO\00", align 1

; Function Attrs: noinline nounwind uwtable
define dso_local i32 @main() #0 {
  %1 = alloca i32, align 4
  %2 = alloca [600 x i8], align 16
  %3 = alloca [600 x [10 x i8]], align 16
  %4 = alloca i32, align 4
  %5 = alloca i32, align 4
  %6 = alloca i32, align 4
  %7 = alloca i32, align 4
  %8 = alloca i32, align 4
  %9 = alloca i32, align 4
  %10 = alloca [600 x i32], align 16
  store i32 0, i32* %1, align 4
  %11 = bitcast [600 x [10 x i8]]* %3 to i8*
  call void @llvm.memset.p0i8.i64(i8* align 16 %11, i8 0, i64 6000, i1 false)
  store i32 0, i32* %7, align 4
  store i32 0, i32* %8, align 4
  %12 = bitcast [600 x i32]* %10 to i8*
  call void @llvm.memset.p0i8.i64(i8* align 16 %12, i8 0, i64 2400, i1 false)
  %13 = call i32 (i8*, ...) @__isoc99_scanf(i8* getelementptr inbounds ([4 x i8], [4 x i8]* @.str, i64 0, i64 0), i32* %4)
  %14 = getelementptr inbounds [600 x i8], [600 x i8]* %2, i64 0, i64 0
  %15 = call i32 (i8*, ...) bitcast (i32 (...)* @gets to i32 (i8*, ...)*)(i8* %14)
  %16 = getelementptr inbounds [600 x i8], [600 x i8]* %2, i64 0, i64 0
  %17 = call i64 @strlen(i8* %16) #4
  %18 = trunc i64 %17 to i32
  store i32 %18, i32* %9, align 4
  store i32 0, i32* %5, align 4
  br label %19

19:                                               ; preds = %52, %0
  %20 = load i32, i32* %5, align 4
  %21 = load i32, i32* %9, align 4
  %22 = load i32, i32* %4, align 4
  %23 = sub nsw i32 %21, %22
  %24 = icmp sle i32 %20, %23
  br i1 %24, label %25, label %55

25:                                               ; preds = %19
  %26 = load i32, i32* %5, align 4
  store i32 %26, i32* %6, align 4
  br label %27

27:                                               ; preds = %46, %25
  %28 = load i32, i32* %6, align 4
  %29 = load i32, i32* %5, align 4
  %30 = load i32, i32* %4, align 4
  %31 = add nsw i32 %29, %30
  %32 = icmp slt i32 %28, %31
  br i1 %32, label %33, label %49

33:                                               ; preds = %27
  %34 = load i32, i32* %6, align 4
  %35 = sext i32 %34 to i64
  %36 = getelementptr inbounds [600 x i8], [600 x i8]* %2, i64 0, i64 %35
  %37 = load i8, i8* %36, align 1
  %38 = load i32, i32* %7, align 4
  %39 = sext i32 %38 to i64
  %40 = getelementptr inbounds [600 x [10 x i8]], [600 x [10 x i8]]* %3, i64 0, i64 %39
  %41 = load i32, i32* %6, align 4
  %42 = load i32, i32* %5, align 4
  %43 = sub nsw i32 %41, %42
  %44 = sext i32 %43 to i64
  %45 = getelementptr inbounds [10 x i8], [10 x i8]* %40, i64 0, i64 %44
  store i8 %37, i8* %45, align 1
  br label %46

46:                                               ; preds = %33
  %47 = load i32, i32* %6, align 4
  %48 = add nsw i32 %47, 1
  store i32 %48, i32* %6, align 4
  br label %27

49:                                               ; preds = %27
  %50 = load i32, i32* %7, align 4
  %51 = add nsw i32 %50, 1
  store i32 %51, i32* %7, align 4
  br label %52

52:                                               ; preds = %49
  %53 = load i32, i32* %5, align 4
  %54 = add nsw i32 %53, 1
  store i32 %54, i32* %5, align 4
  br label %19

55:                                               ; preds = %19
  store i32 0, i32* %6, align 4
  br label %56

56:                                               ; preds = %100, %55
  %57 = load i32, i32* %6, align 4
  %58 = load i32, i32* %7, align 4
  %59 = icmp slt i32 %57, %58
  br i1 %59, label %60, label %103

60:                                               ; preds = %56
  %61 = load i32, i32* %6, align 4
  store i32 %61, i32* %5, align 4
  br label %62

62:                                               ; preds = %84, %60
  %63 = load i32, i32* %5, align 4
  %64 = load i32, i32* %7, align 4
  %65 = icmp slt i32 %63, %64
  br i1 %65, label %66, label %87

66:                                               ; preds = %62
  %67 = load i32, i32* %5, align 4
  %68 = sext i32 %67 to i64
  %69 = getelementptr inbounds [600 x [10 x i8]], [600 x [10 x i8]]* %3, i64 0, i64 %68
  %70 = getelementptr inbounds [10 x i8], [10 x i8]* %69, i64 0, i64 0
  %71 = load i32, i32* %6, align 4
  %72 = sext i32 %71 to i64
  %73 = getelementptr inbounds [600 x [10 x i8]], [600 x [10 x i8]]* %3, i64 0, i64 %72
  %74 = getelementptr inbounds [10 x i8], [10 x i8]* %73, i64 0, i64 0
  %75 = call i32 @strcmp(i8* %70, i8* %74) #4
  %76 = icmp ne i32 %75, 0
  br i1 %76, label %83, label %77

77:                                               ; preds = %66
  %78 = load i32, i32* %6, align 4
  %79 = sext i32 %78 to i64
  %80 = getelementptr inbounds [600 x i32], [600 x i32]* %10, i64 0, i64 %79
  %81 = load i32, i32* %80, align 4
  %82 = add nsw i32 %81, 1
  store i32 %82, i32* %80, align 4
  br label %83

83:                                               ; preds = %77, %66
  br label %84

84:                                               ; preds = %83
  %85 = load i32, i32* %5, align 4
  %86 = add nsw i32 %85, 1
  store i32 %86, i32* %5, align 4
  br label %62

87:                                               ; preds = %62
  %88 = load i32, i32* %6, align 4
  %89 = sext i32 %88 to i64
  %90 = getelementptr inbounds [600 x i32], [600 x i32]* %10, i64 0, i64 %89
  %91 = load i32, i32* %90, align 4
  %92 = load i32, i32* %8, align 4
  %93 = icmp sgt i32 %91, %92
  br i1 %93, label %94, label %99

94:                                               ; preds = %87
  %95 = load i32, i32* %6, align 4
  %96 = sext i32 %95 to i64
  %97 = getelementptr inbounds [600 x i32], [600 x i32]* %10, i64 0, i64 %96
  %98 = load i32, i32* %97, align 4
  store i32 %98, i32* %8, align 4
  br label %99

99:                                               ; preds = %94, %87
  br label %100

100:                                              ; preds = %99
  %101 = load i32, i32* %6, align 4
  %102 = add nsw i32 %101, 1
  store i32 %102, i32* %6, align 4
  br label %56

103:                                              ; preds = %56
  %104 = load i32, i32* %8, align 4
  %105 = icmp sgt i32 %104, 1
  br i1 %105, label %106, label %131

106:                                              ; preds = %103
  %107 = load i32, i32* %8, align 4
  %108 = call i32 (i8*, ...) @printf(i8* getelementptr inbounds ([4 x i8], [4 x i8]* @.str, i64 0, i64 0), i32 %107)
  store i32 0, i32* %5, align 4
  br label %109

109:                                              ; preds = %127, %106
  %110 = load i32, i32* %5, align 4
  %111 = load i32, i32* %7, align 4
  %112 = icmp slt i32 %110, %111
  br i1 %112, label %113, label %130

113:                                              ; preds = %109
  %114 = load i32, i32* %5, align 4
  %115 = sext i32 %114 to i64
  %116 = getelementptr inbounds [600 x i32], [600 x i32]* %10, i64 0, i64 %115
  %117 = load i32, i32* %116, align 4
  %118 = load i32, i32* %8, align 4
  %119 = icmp eq i32 %117, %118
  br i1 %119, label %120, label %126

120:                                              ; preds = %113
  %121 = load i32, i32* %5, align 4
  %122 = sext i32 %121 to i64
  %123 = getelementptr inbounds [600 x [10 x i8]], [600 x [10 x i8]]* %3, i64 0, i64 %122
  %124 = getelementptr inbounds [10 x i8], [10 x i8]* %123, i64 0, i64 0
  %125 = call i32 @puts(i8* %124)
  br label %126

126:                                              ; preds = %120, %113
  br label %127

127:                                              ; preds = %126
  %128 = load i32, i32* %5, align 4
  %129 = add nsw i32 %128, 1
  store i32 %129, i32* %5, align 4
  br label %109

130:                                              ; preds = %109
  br label %133

131:                                              ; preds = %103
  %132 = call i32 (i8*, ...) @printf(i8* getelementptr inbounds ([3 x i8], [3 x i8]* @.str.1, i64 0, i64 0))
  br label %133

133:                                              ; preds = %131, %130
  ret i32 0
}

; Function Attrs: argmemonly nounwind willreturn
declare void @llvm.memset.p0i8.i64(i8* nocapture writeonly, i8, i64, i1 immarg) #1

declare dso_local i32 @__isoc99_scanf(i8*, ...) #2

declare dso_local i32 @gets(...) #2

; Function Attrs: nounwind readonly
declare dso_local i64 @strlen(i8*) #3

; Function Attrs: nounwind readonly
declare dso_local i32 @strcmp(i8*, i8*) #3

declare dso_local i32 @printf(i8*, ...) #2

declare dso_local i32 @puts(i8*) #2


!llvm.module.flags = !{!0}
!llvm.ident = !{!1}

!0 = !{i32 1, !"wchar_size", i32 4}
!1 = !{!"clang version 10.0.0-4ubuntu1 "}
